; Function Attrs: mustprogress uwtable
define noundef double @_ZN13duckdb_brotli38BrotliHistogramBitCostDistanceDistanceEPKNS_17HistogramDistanceES2_PS0_(ptr noundef readonly captures(none) %0, ptr noundef readonly captures(none) %1, ptr noundef %2) local_unnamed_addr #0 {
  %4 = getelementptr inbounds nuw i8, ptr %0, i64 2176
  %5 = load i64, ptr %4, align 8, !tbaa !72
  %6 = icmp eq i64 %5, 0
  br i1 %6, label %24, label %7

7:                                                ; preds = %3
  tail call void @llvm.memcpy.p0.p0.i64(ptr noundef nonnull align 8 dereferenceable(2192) %2, ptr noundef nonnull align 8 dereferenceable(2192) %0, i64 2192, i1 false), !tbaa.struct !73
  %8 = getelementptr inbounds nuw i8, ptr %1, i64 2176
  %9 = load i64, ptr %8, align 8, !tbaa !72
  %10 = getelementptr inbounds nuw i8, ptr %2, i64 2176
  %11 = load i64, ptr %10, align 8, !tbaa !72
  %12 = add i64 %11, %9
  store i64 %12, ptr %10, align 8, !tbaa !72
  br label %13

13:                                               ; preds = %7, %13
  %.0.i8 = phi i64 [ 0, %7 ], [ %19, %13 ]
  %14 = getelementptr inbounds nuw [544 x i32], ptr %1, i64 0, i64 %.0.i8
  %15 = load i32, ptr %14, align 4, !tbaa !3
  %16 = getelementptr inbounds nuw [544 x i32], ptr %2, i64 0, i64 %.0.i8
  %17 = load i32, ptr %16, align 4, !tbaa !3
  %18 = add i32 %17, %15
  store i32 %18, ptr %16, align 4, !tbaa !3
  %19 = add nuw nsw i64 %.0.i8, 1
  %exitcond.not = icmp eq i64 %19, 544
  br i1 %exitcond.not, label %_ZN13duckdb_brotliL29HistogramAddHistogramDistanceEPNS_17HistogramDistanceEPKS0_.exit, label %13, !llvm.loop !74

_ZN13duckdb_brotliL29HistogramAddHistogramDistanceEPNS_17HistogramDistanceEPKS0_.exit: ; preds = %13
  %20 = tail call noundef double @_ZN13duckdb_brotli28BrotliPopulationCostDistanceEPKNS_17HistogramDistanceE(ptr noundef nonnull %2)
  %21 = getelementptr inbounds nuw i8, ptr %1, i64 2184
  %22 = load double, ptr %21, align 8, !tbaa !70
  %23 = fsub double %20, %22
  br label %24

24:                                               ; preds = %3, %_ZN13duckdb_brotliL29HistogramAddHistogramDistanceEPNS_17HistogramDistanceEPKS0_.exit
  %.0 = phi double [ %23, %_ZN13duckdb_brotliL29HistogramAddHistogramDistanceEPNS_17HistogramDistanceEPKS0_.exit ], [ 0.000000e+00, %3 ]
  ret double %.0
}